target datalayout = "e-m:e-p270:32:32-p271:32:32-p272:64:64-i64:64-i128:128-f80:128-n8:16:32:64-S128"
target triple = "x86_64-pc-linux-gnu"

%struct._zend_executor_globals = type { %struct._zval_struct, %struct._zval_struct, [32 x ptr], ptr, ptr, %struct._zend_array, %struct._zend_array, ptr, i32, i32, ptr, ptr, ptr, ptr, ptr, ptr, i64, ptr, ptr, i32, i32, i64, i32, i32, i32, i8, i8, %struct.zend_atomic_bool_s, %struct.zend_atomic_bool_s, ptr, i64, ptr, ptr, %struct._zend_array, %struct._zend_array, i32, i8, %struct._zval_struct, %struct._zval_struct, %struct._zend_stack, %struct._zend_stack, %struct._zend_stack, ptr, i32, i32, i64, ptr, ptr, ptr, %struct._zend_objects_store, ptr, ptr, ptr, [3 x %struct._zend_op], ptr, i8, i8, i64, i32, i32, ptr, [16 x %struct._HashTableIterator], ptr, %union._zend_function, %struct._zend_op, %struct._zend_array, i64, %struct.zend_get_gc_buffer, ptr, ptr, ptr, i64, i8, i32, ptr, ptr, i64, %struct._zend_call_stack, i64, i64, [6 x ptr] }
%struct.zend_atomic_bool_s = type { i8 }
%struct._zval_struct = type { %union._zend_value, %union.anon, %union.anon.2 }
%union._zend_value = type { i64 }
%union.anon = type { i32 }
%union.anon.2 = type { i32 }
%struct._zend_stack = type { i32, i32, i32, ptr }
%struct._zend_objects_store = type { ptr, i32, i32, i32 }
%struct._HashTableIterator = type { ptr, i32, i32 }
%union._zend_function = type { %struct._zend_op_array }
%struct._zend_op_array = type { i8, [3 x i8], i32, ptr, ptr, ptr, i32, i32, ptr, ptr, ptr, ptr, i32, i32, i32, i32, ptr, ptr, ptr, ptr, ptr, i32, i32, ptr, ptr, ptr, i32, i32, i32, i32, ptr, ptr, [6 x ptr] }
%struct._zend_op = type { ptr, %union._znode_op, %union._znode_op, %union._znode_op, i32, i32, i8, i8, i8, i8 }
%union._znode_op = type { i32 }
%struct._zend_array = type { %struct._zend_refcounted_h, %union.anon.4, i32, %union.anon.6, i32, i32, i32, i32, i64, ptr }
%struct._zend_refcounted_h = type { i32, %union.anon.3 }
%union.anon.3 = type { i32 }
%union.anon.4 = type { i32 }
%union.anon.6 = type { ptr }
%struct.zend_get_gc_buffer = type { ptr, ptr, ptr }
%struct._zend_call_stack = type { ptr, i64 }
%struct._zend_string = type { %struct._zend_refcounted_h, i64, i64, [1 x i8] }
%struct._zend_execute_data = type { ptr, ptr, ptr, ptr, %struct._zval_struct, ptr, ptr, ptr, ptr }

@zend_empty_string = external global ptr, align 8
@.str.7 = private unnamed_addr constant [32 x i8] c"must not contain any null bytes\00", align 1
@executor_globals = external global %struct._zend_executor_globals, align 8

; Function Attrs: nounwind uwtable
define hidden void @zif_escapeshellcmd(ptr noundef %0, ptr noundef %1) #0 {
  %3 = alloca ptr, align 8
  %4 = alloca ptr, align 8
  %5 = alloca i1, align 1
  %6 = alloca ptr, align 8
  %7 = alloca ptr, align 8
  %8 = alloca i8, align 1
  %9 = alloca i32, align 4
  %10 = alloca i8, align 1
  %11 = alloca ptr, align 8
  %12 = alloca ptr, align 8
  %13 = alloca i8, align 1
  %14 = alloca i32, align 4
  %15 = alloca i32, align 4
  %16 = alloca i1, align 1
  %17 = alloca ptr, align 8
  %18 = alloca ptr, align 8
  %19 = alloca ptr, align 8
  %20 = alloca i8, align 1
  %21 = alloca i32, align 4
  %22 = alloca ptr, align 8
  %23 = alloca ptr, align 8
  %24 = alloca ptr, align 8
  %25 = alloca ptr, align 8
  %26 = alloca i64, align 8
  %27 = alloca i32, align 4
  %28 = alloca i32, align 4
  %29 = alloca i32, align 4
  %30 = alloca i32, align 4
  %31 = alloca i32, align 4
  %32 = alloca ptr, align 8
  %33 = alloca ptr, align 8
  %34 = alloca i32, align 4
  %35 = alloca ptr, align 8
  %36 = alloca i8, align 1
  %37 = alloca i8, align 1
  %38 = alloca i32, align 4
  %39 = alloca ptr, align 8
  %40 = alloca ptr, align 8
  %41 = alloca ptr, align 8
  %42 = alloca ptr, align 8
  store ptr %0, ptr %23, align 8
  store ptr %1, ptr %24, align 8
  br label %43

43:                                               ; preds = %2
  store i32 0, ptr %27, align 4
  store i32 1, ptr %28, align 4
  store i32 1, ptr %29, align 4
  %44 = load ptr, ptr %23, align 8
  %45 = getelementptr inbounds %struct._zend_execute_data, ptr %44, i32 0, i32 4
  %46 = getelementptr inbounds %struct._zval_struct, ptr %45, i32 0, i32 2
  %47 = load i32, ptr %46, align 4
  store i32 %47, ptr %30, align 4
  store i32 0, ptr %31, align 4
  store ptr null, ptr %33, align 8
  store i32 0, ptr %34, align 4
  store ptr null, ptr %35, align 8
  store i8 0, ptr %36, align 1
  store i8 0, ptr %37, align 1
  store i32 0, ptr %38, align 4
  br label %48

48:                                               ; preds = %43
  %49 = load i32, ptr %30, align 4
  %50 = load i32, ptr %28, align 4
  %51 = icmp ult i32 %49, %50
  %52 = xor i1 %51, true
  %53 = xor i1 %52, true
  %54 = zext i1 %53 to i32
  %55 = sext i32 %54 to i64
  %56 = icmp ne i64 %55, 0
  br i1 %56, label %66, label %57

57:                                               ; preds = %48
  %58 = load i32, ptr %30, align 4
  %59 = load i32, ptr %29, align 4
  %60 = icmp ugt i32 %58, %59
  %61 = xor i1 %60, true
  %62 = xor i1 %61, true
  %63 = zext i1 %62 to i32
  %64 = sext i32 %63 to i64
  %65 = icmp ne i64 %64, 0
  br i1 %65, label %66, label %69

66:                                               ; preds = %57, %48
  %67 = load i32, ptr %28, align 4
  %68 = load i32, ptr %29, align 4
  call void @zend_wrong_parameters_count_error(i32 noundef %67, i32 noundef %68)
  store i32 1, ptr %38, align 4
  br label %200

69:                                               ; preds = %57
  %70 = load ptr, ptr %23, align 8
  %71 = getelementptr inbounds %struct._zval_struct, ptr %70, i64 4
  store ptr %71, ptr %32, align 8
  %72 = load i32, ptr %31, align 4
  %73 = add i32 %72, 1
  store i32 %73, ptr %31, align 4
  %74 = load i32, ptr %31, align 4
  %75 = load i32, ptr %28, align 4
  %76 = icmp ule i32 %74, %75
  br i1 %76, label %82, label %77

77:                                               ; preds = %69
  %78 = load i8, ptr %37, align 1
  %79 = trunc i8 %78 to i1
  %80 = zext i1 %79 to i32
  %81 = icmp eq i32 %80, 1
  br label %82

82:                                               ; preds = %77, %69
  %83 = phi i1 [ true, %69 ], [ %81, %77 ]
  call void @llvm.assume(i1 %83)
  %84 = load i32, ptr %31, align 4
  %85 = load i32, ptr %28, align 4
  %86 = icmp ugt i32 %84, %85
  br i1 %86, label %92, label %87

87:                                               ; preds = %82
  %88 = load i8, ptr %37, align 1
  %89 = trunc i8 %88 to i1
  %90 = zext i1 %89 to i32
  %91 = icmp eq i32 %90, 0
  br label %92

92:                                               ; preds = %87, %82
  %93 = phi i1 [ true, %82 ], [ %91, %87 ]
  call void @llvm.assume(i1 %93)
  %94 = load i8, ptr %37, align 1
  %95 = trunc i8 %94 to i1
  br i1 %95, label %96, label %107

96:                                               ; preds = %92
  %97 = load i32, ptr %31, align 4
  %98 = load i32, ptr %30, align 4
  %99 = icmp ugt i32 %97, %98
  %100 = xor i1 %99, true
  %101 = xor i1 %100, true
  %102 = zext i1 %101 to i32
  %103 = sext i32 %102 to i64
  %104 = icmp ne i64 %103, 0
  br i1 %104, label %105, label %106

105:                                              ; preds = %96
  br label %200

106:                                              ; preds = %96
  br label %107

107:                                              ; preds = %106, %92
  %108 = load ptr, ptr %32, align 8
  %109 = getelementptr inbounds %struct._zval_struct, ptr %108, i32 1
  store ptr %109, ptr %32, align 8
  %110 = load ptr, ptr %32, align 8
  store ptr %110, ptr %33, align 8
  %111 = load ptr, ptr %33, align 8
  %112 = load i32, ptr %31, align 4
  store ptr %111, ptr %17, align 8
  store ptr %25, ptr %18, align 8
  store ptr %26, ptr %19, align 8
  store i8 0, ptr %20, align 1
  store i32 %112, ptr %21, align 4
  %113 = load ptr, ptr %17, align 8
  %114 = load i8, ptr %20, align 1
  %115 = trunc i8 %114 to i1
  %116 = load i32, ptr %21, align 4
  store ptr %113, ptr %11, align 8
  store ptr %22, ptr %12, align 8
  %117 = zext i1 %115 to i8
  store i8 %117, ptr %13, align 1
  store i32 %116, ptr %14, align 4
  %118 = load ptr, ptr %11, align 8
  %119 = load ptr, ptr %12, align 8
  %120 = load i8, ptr %13, align 1
  %121 = trunc i8 %120 to i1
  %122 = load i32, ptr %14, align 4
  store ptr %118, ptr %6, align 8
  store ptr %119, ptr %7, align 8
  %123 = zext i1 %121 to i8
  store i8 %123, ptr %8, align 1
  store i32 %122, ptr %9, align 4
  store i8 0, ptr %10, align 1
  %124 = load ptr, ptr %6, align 8
  store ptr %124, ptr %3, align 8
  %125 = load ptr, ptr %3, align 8
  %126 = getelementptr inbounds %struct._zval_struct, ptr %125, i32 0, i32 1
  %127 = load i8, ptr %126, align 8
  %128 = zext i8 %127 to i32
  %129 = icmp eq i32 %128, 6
  br i1 %129, label %130, label %134

130:                                              ; preds = %107
  %131 = load ptr, ptr %6, align 8
  %132 = load ptr, ptr %131, align 8
  %133 = load ptr, ptr %7, align 8
  store ptr %132, ptr %133, align 8
  br label %159

134:                                              ; preds = %107
  %135 = load i8, ptr %8, align 1
  %136 = trunc i8 %135 to i1
  br i1 %136, label %137, label %146

137:                                              ; preds = %134
  %138 = load ptr, ptr %6, align 8
  store ptr %138, ptr %4, align 8
  %139 = load ptr, ptr %4, align 8
  %140 = getelementptr inbounds %struct._zval_struct, ptr %139, i32 0, i32 1
  %141 = load i8, ptr %140, align 8
  %142 = zext i8 %141 to i32
  %143 = icmp eq i32 %142, 1
  br i1 %143, label %144, label %146

144:                                              ; preds = %137
  %145 = load ptr, ptr %7, align 8
  store ptr null, ptr %145, align 8
  br label %159

146:                                              ; preds = %137, %134
  %147 = load i8, ptr %10, align 1
  %148 = trunc i8 %147 to i1
  br i1 %148, label %149, label %154

149:                                              ; preds = %146
  %150 = load ptr, ptr %6, align 8
  %151 = load ptr, ptr %7, align 8
  %152 = load i32, ptr %9, align 4
  %153 = call zeroext i1 @zend_flf_parse_arg_str_slow(ptr noundef %150, ptr noundef %151, i32 noundef %152) #10
  store i1 %153, ptr %5, align 1
  br label %160

154:                                              ; preds = %146
  %155 = load ptr, ptr %6, align 8
  %156 = load ptr, ptr %7, align 8
  %157 = load i32, ptr %9, align 4
  %158 = call zeroext i1 @zend_parse_arg_str_slow(ptr noundef %155, ptr noundef %156, i32 noundef %157) #10
  store i1 %158, ptr %5, align 1
  br label %160

159:                                              ; preds = %144, %130
  store i1 true, ptr %5, align 1
  br label %160

160:                                              ; preds = %159, %154, %149
  %161 = load i1, ptr %5, align 1
  br i1 %161, label %163, label %162

162:                                              ; preds = %160
  store i1 false, ptr %16, align 1
  br label %182

163:                                              ; preds = %160
  %164 = load i8, ptr %20, align 1
  %165 = trunc i8 %164 to i1
  br i1 %165, label %166, label %173

166:                                              ; preds = %163
  %167 = load ptr, ptr %22, align 8
  %168 = icmp ne ptr %167, null
  %169 = xor i1 %168, true
  br i1 %169, label %170, label %173

170:                                              ; preds = %166
  %171 = load ptr, ptr %18, align 8
  store ptr null, ptr %171, align 8
  %172 = load ptr, ptr %19, align 8
  store i64 0, ptr %172, align 8
  br label %181

173:                                              ; preds = %166, %163
  %174 = load ptr, ptr %22, align 8
  %175 = getelementptr inbounds %struct._zend_string, ptr %174, i32 0, i32 3
  %176 = load ptr, ptr %18, align 8
  store ptr %175, ptr %176, align 8
  %177 = load ptr, ptr %22, align 8
  %178 = getelementptr inbounds %struct._zend_string, ptr %177, i32 0, i32 2
  %179 = load i64, ptr %178, align 8
  %180 = load ptr, ptr %19, align 8
  store i64 %179, ptr %180, align 8
  br label %181

181:                                              ; preds = %173, %170
  store i1 true, ptr %16, align 1
  br label %182

182:                                              ; preds = %181, %162
  %183 = load i1, ptr %16, align 1
  %184 = xor i1 %183, true
  %185 = xor i1 %184, true
  %186 = xor i1 %185, true
  %187 = zext i1 %186 to i32
  %188 = sext i32 %187 to i64
  %189 = icmp ne i64 %188, 0
  br i1 %189, label %190, label %191

190:                                              ; preds = %182
  store i32 4, ptr %34, align 4
  store i32 9, ptr %38, align 4
  br label %200

191:                                              ; preds = %182
  %192 = load i32, ptr %31, align 4
  %193 = load i32, ptr %29, align 4
  %194 = icmp eq i32 %192, %193
  br i1 %194, label %198, label %195

195:                                              ; preds = %191
  %196 = load i32, ptr %29, align 4
  %197 = icmp eq i32 %196, -1
  br label %198

198:                                              ; preds = %195, %191
  %199 = phi i1 [ true, %191 ], [ %197, %195 ]
  call void @llvm.assume(i1 %199)
  br label %200

200:                                              ; preds = %198, %190, %105, %66
  %201 = load i32, ptr %38, align 4
  %202 = icmp ne i32 %201, 0
  %203 = xor i1 %202, true
  %204 = xor i1 %203, true
  %205 = zext i1 %204 to i32
  %206 = sext i32 %205 to i64
  %207 = icmp ne i64 %206, 0
  br i1 %207, label %208, label %214

208:                                              ; preds = %200
  %209 = load i32, ptr %38, align 4
  %210 = load i32, ptr %31, align 4
  %211 = load ptr, ptr %35, align 8
  %212 = load i32, ptr %34, align 4
  %213 = load ptr, ptr %33, align 8
  call void @zend_wrong_parameter_error(i32 noundef %209, i32 noundef %210, ptr noundef %211, i32 noundef %212, ptr noundef %213)
  br label %260

214:                                              ; preds = %200
  br label %215

215:                                              ; preds = %214
  %216 = load i64, ptr %26, align 8
  %217 = icmp ne i64 %216, 0
  br i1 %217, label %218, label %248

218:                                              ; preds = %215
  %219 = load i64, ptr %26, align 8
  %220 = load ptr, ptr %25, align 8
  %221 = call i64 @strlen(ptr noundef %220) #15
  %222 = icmp ne i64 %219, %221
  br i1 %222, label %223, label %228

223:                                              ; preds = %218
  call void (i32, ptr, ...) @zend_argument_value_error(i32 noundef 1, ptr noundef @.str.7)
  br label %224

224:                                              ; preds = %223
  %225 = load ptr, ptr getelementptr inbounds (%struct._zend_executor_globals, ptr @executor_globals, i32 0, i32 50), align 8
  %226 = icmp ne ptr %225, null
  call void @llvm.assume(i1 %226)
  br label %260

227:                                              ; No predecessors!
  br label %228

228:                                              ; preds = %227, %218
  br label %229

229:                                              ; preds = %228
  %230 = load ptr, ptr %24, align 8
  store ptr %230, ptr %39, align 8
  %231 = load ptr, ptr %25, align 8
  %232 = call ptr @php_escape_shell_cmd(ptr noundef %231)
  store ptr %232, ptr %40, align 8
  %233 = load ptr, ptr %40, align 8
  %234 = load ptr, ptr %39, align 8
  %235 = getelementptr inbounds %struct._zval_struct, ptr %234, i32 0, i32 0
  store ptr %233, ptr %235, align 8
  %236 = load ptr, ptr %40, align 8
  %237 = getelementptr inbounds %struct._zend_string, ptr %236, i32 0, i32 0
  %238 = getelementptr inbounds %struct._zend_refcounted_h, ptr %237, i32 0, i32 1
  %239 = load i32, ptr %238, align 4
  store i32 %239, ptr %15, align 4
  %240 = load i32, ptr %15, align 4
  %241 = and i32 %240, 1008
  %242 = and i32 %241, 64
  %243 = icmp ne i32 %242, 0
  %244 = select i1 %243, i32 6, i32 262
  %245 = load ptr, ptr %39, align 8
  %246 = getelementptr inbounds %struct._zval_struct, ptr %245, i32 0, i32 1
  store i32 %244, ptr %246, align 8
  br label %247

247:                                              ; preds = %229
  br label %260

248:                                              ; preds = %215
  br label %249

249:                                              ; preds = %248
  br label %250

250:                                              ; preds = %249
  %251 = load ptr, ptr %24, align 8
  store ptr %251, ptr %41, align 8
  %252 = load ptr, ptr @zend_empty_string, align 8
  store ptr %252, ptr %42, align 8
  %253 = load ptr, ptr %42, align 8
  %254 = load ptr, ptr %41, align 8
  %255 = getelementptr inbounds %struct._zval_struct, ptr %254, i32 0, i32 0
  store ptr %253, ptr %255, align 8
  %256 = load ptr, ptr %41, align 8
  %257 = getelementptr inbounds %struct._zval_struct, ptr %256, i32 0, i32 1
  store i32 6, ptr %257, align 8
  br label %258

258:                                              ; preds = %250
  br label %259

259:                                              ; preds = %258
  br label %260

260:                                              ; preds = %259, %247, %224, %208
  ret void
}