; Function Attrs: nounwind uwtable
define hidden void @zif_escapeshellcmd(ptr noundef %0, ptr nocapture noundef writeonly %1) local_unnamed_addr #0 {
  %3 = alloca ptr, align 8
  %4 = getelementptr inbounds i8, ptr %0, i64 44
  %5 = load i32, ptr %4, align 4
  %cond = icmp eq i32 %5, 1
  br i1 %cond, label %6, label %.thread91

.thread91:                                        ; preds = %2
  tail call void @zend_wrong_parameters_count_error(i32 noundef 1, i32 noundef 1) #10
  br label %14

6:                                                ; preds = %2
  %7 = getelementptr inbounds i8, ptr %0, i64 80
  %8 = getelementptr inbounds i8, ptr %0, i64 88
  %9 = load i8, ptr %8, align 8
  %10 = icmp eq i8 %9, 6
  br i1 %10, label %.thread, label %12

.thread:                                          ; preds = %6
  %11 = load ptr, ptr %7, align 8
  store ptr %11, ptr %3, align 8
  br label %15

12:                                               ; preds = %6
  %13 = call zeroext i1 @zend_parse_arg_str_slow(ptr noundef nonnull %7, ptr noundef nonnull %3, i32 noundef 1) #10
  br i1 %13, label %._crit_edge, label %14

._crit_edge:                                      ; preds = %12
  %.pre = load ptr, ptr %3, align 8
  br label %15

14:                                               ; preds = %12, %.thread91
  %.070102 = phi i32 [ 0, %.thread91 ], [ 1, %12 ]
  %.071101 = phi i32 [ 1, %.thread91 ], [ 9, %12 ]
  %.072100 = phi ptr [ null, %.thread91 ], [ %7, %12 ]
  %.07399 = phi i32 [ 0, %.thread91 ], [ 4, %12 ]
  call void @zend_wrong_parameter_error(i32 noundef %.071101, i32 noundef %.070102, ptr noundef null, i32 noundef %.07399, ptr noundef %.072100) #10
  br label %35

15:                                               ; preds = %._crit_edge, %.thread
  %16 = phi ptr [ %.pre, %._crit_edge ], [ %11, %.thread ]
  %17 = getelementptr inbounds i8, ptr %16, i64 16
  %18 = load i64, ptr %17, align 8
  %19 = getelementptr inbounds i8, ptr %16, i64 24
  %.not83 = icmp eq i64 %18, 0
  br i1 %.not83, label %32, label %20

20:                                               ; preds = %15
  %21 = call i64 @strlen(ptr noundef nonnull dereferenceable(1) %19) #14
  %.not84 = icmp eq i64 %18, %21
  br i1 %.not84, label %25, label %22

22:                                               ; preds = %20
  call void (i32, ptr, ...) @zend_argument_value_error(i32 noundef 1, ptr noundef nonnull @.str.7) #10
  %23 = load ptr, ptr getelementptr inbounds (%struct._zend_executor_globals, ptr @executor_globals, i64 0, i32 50), align 8
  %24 = icmp ne ptr %23, null
  call void @llvm.assume(i1 %24)
  br label %35

25:                                               ; preds = %20
  %26 = call ptr @php_escape_shell_cmd(ptr noundef nonnull %19)
  store ptr %26, ptr %1, align 8
  %27 = getelementptr inbounds i8, ptr %26, i64 4
  %28 = load i32, ptr %27, align 4
  %29 = and i32 %28, 64
  %.not85 = icmp eq i32 %29, 0
  %30 = select i1 %.not85, i32 262, i32 6
  %31 = getelementptr inbounds i8, ptr %1, i64 8
  store i32 %30, ptr %31, align 8
  br label %35

32:                                               ; preds = %15
  %33 = load ptr, ptr @zend_empty_string, align 8
  store ptr %33, ptr %1, align 8
  %34 = getelementptr inbounds i8, ptr %1, i64 8
  store i32 6, ptr %34, align 8
  br label %35

35:                                               ; preds = %32, %25, %22, %14
  ret void
}